target datalayout = "e-m:e-p270:32:32-p271:32:32-p272:64:64-i64:64-i128:128-f80:128-n8:16:32:64-S128"
target triple = "x86_64-pc-linux-gnu"

%struct.exr_chunk_info_t = type { i32, i32, i32, i32, i32, i8, i8, i8, i8, i64, i64, i64, i64, i64 }
%"struct.Imf_3_4::(anonymous namespace)::TileProcess" = type { i8, %struct.exr_chunk_info_t, %struct._exr_decode_pipeline, ptr }
%struct._exr_decode_pipeline = type { i64, ptr, i16, i16, i32, ptr, %struct.exr_chunk_info_t, i32, i32, i64, ptr, ptr, i64, ptr, i64, ptr, i64, ptr, i64, ptr, i64, ptr, i64, ptr, ptr, ptr, ptr, ptr, ptr, [5 x %struct.exr_coding_channel_info_t] }
%struct.exr_coding_channel_info_t = type { ptr, i32, i32, i32, i32, i8, i8, i16, i16, i16, i32, i32, %union.anon.33 }
%union.anon.33 = type { ptr }

; Function Attrs: mustprogress nounwind uwtable
define internal void @_ZN7Imf_3_412_GLOBAL__N_111TileProcessD2Ev(ptr noundef nonnull align 8 dereferenceable(584) %0) unnamed_addr #7 align 2 personality ptr @__gxx_personality_v0 {
  %2 = alloca ptr, align 8
  store ptr %0, ptr %2, align 8, !tbaa !219
  %3 = load ptr, ptr %2, align 8
  %4 = getelementptr inbounds nuw %"struct.Imf_3_4::(anonymous namespace)::TileProcess", ptr %3, i32 0, i32 0
  %5 = load i8, ptr %4, align 8, !tbaa !220, !range !91, !noundef !92
  %6 = trunc i8 %5 to i1
  br i1 %6, label %14, label %7

7:                                                ; preds = %1
  %8 = getelementptr inbounds nuw %"struct.Imf_3_4::(anonymous namespace)::TileProcess", ptr %3, i32 0, i32 2
  %9 = getelementptr inbounds nuw %struct._exr_decode_pipeline, ptr %8, i32 0, i32 5
  %10 = load ptr, ptr %9, align 8, !tbaa !225
  %11 = getelementptr inbounds nuw %"struct.Imf_3_4::(anonymous namespace)::TileProcess", ptr %3, i32 0, i32 2
  %12 = invoke i32 @exr_decoding_destroy(ptr noundef %10, ptr noundef %11)
          to label %13 unwind label %15

13:                                               ; preds = %7
  br label %14

14:                                               ; preds = %13, %1
  ret void

15:                                               ; preds = %7
  %16 = landingpad { ptr, i32 }
          catch ptr null
  %17 = extractvalue { ptr, i32 } %16, 0
  call void @__clang_call_terminate(ptr %17) #24
  unreachable
}