; Function Attrs: mustprogress nounwind uwtable
define internal fastcc void @_ZN7Imf_3_412_GLOBAL__N_111TileProcessD2Ev(ptr noundef nonnull align 8 dereferenceable(584) %0) unnamed_addr #5 align 2 personality ptr @__gxx_personality_v0 {
  %2 = load i8, ptr %0, align 8, !tbaa !126, !range !98, !noundef !99
  %3 = trunc nuw i8 %2 to i1
  br i1 %3, label %9, label %4

4:                                                ; preds = %1
  %5 = getelementptr inbounds nuw i8, ptr %0, i64 72
  %6 = getelementptr inbounds nuw i8, ptr %0, i64 96
  %7 = load ptr, ptr %6, align 8, !tbaa !176
  %8 = invoke i32 @exr_decoding_destroy(ptr noundef %7, ptr noundef nonnull %5)
          to label %9 unwind label %10

9:                                                ; preds = %4, %1
  ret void

10:                                               ; preds = %4
  %11 = landingpad { ptr, i32 }
          catch ptr null
  %12 = extractvalue { ptr, i32 } %11, 0
  tail call void @__clang_call_terminate(ptr %12) #32
  unreachable
}